target datalayout = "e-m:e-p270:32:32-p271:32:32-p272:64:64-i64:64-i128:128-f80:128-n8:16:32:64-S128"
target triple = "x86_64-pc-linux-gnu"

%class.MemRegion = type { ptr, i64 }
%class.FileMapInfo = type { i8, i8, i8, i32, i64, ptr, ptr, ptr }
%struct.CDSFileMapHeaderBase = type { %struct.GenericCDSFileMapHeader, [4 x %struct.CDSFileMapRegion] }
%struct.GenericCDSFileMapHeader = type { i32, i32, i32, i32, i32, i32 }
%struct.CDSFileMapRegion = type { i32, i32, i32, i32, i32, i32, i64, i64, i64, i64, i64, i64, i64, ptr }

@_ZN11FileMapInfo22_mapped_heap_memregionE = hidden global %class.MemRegion zeroinitializer, align 8
@_ZN11FileMapInfo28_heap_pointers_need_patchingE = hidden global i8 0, align 1
@_ZN17ArchiveHeapLoader10_is_mappedE = external global i8, align 1

; Function Attrs: mustprogress nounwind uwtable
define linkonce_odr hidden noundef ptr @_ZN13FileMapRegion4castEP16CDSFileMapRegion(ptr noundef %0) #1 comdat align 2 {
  %2 = alloca ptr, align 8
  store ptr %0, ptr %2, align 8
  %3 = load ptr, ptr %2, align 8
  ret ptr %3
}

; Function Attrs: mustprogress nounwind uwtable
define linkonce_odr hidden void @_ZNK13FileMapRegion21assert_is_heap_regionEv(ptr noundef nonnull align 8 dereferenceable(88) %0) #1 comdat align 2 {
  %2 = alloca ptr, align 8
  store ptr %0, ptr %2, align 8
  ret void
}

; Function Attrs: mustprogress nounwind uwtable
define linkonce_odr hidden noundef ptr @_ZN13FileMapHeader9region_atEi(ptr noundef nonnull align 8 dereferenceable(792) %0, i32 noundef %1) #1 comdat align 2 {
  %3 = alloca ptr, align 8
  %4 = alloca i32, align 4
  store ptr %0, ptr %3, align 8
  store i32 %1, ptr %4, align 4
  %5 = load ptr, ptr %3, align 8
  %6 = getelementptr inbounds %struct.CDSFileMapHeaderBase, ptr %5, i32 0, i32 1
  %7 = load i32, ptr %4, align 4
  %8 = sext i32 %7 to i64
  %9 = getelementptr inbounds [4 x %struct.CDSFileMapRegion], ptr %6, i64 0, i64 %8
  %10 = call noundef ptr @_ZN13FileMapRegion4castEP16CDSFileMapRegion(ptr noundef %9)
  ret ptr %10
}

; Function Attrs: mustprogress nounwind uwtable
define linkonce_odr hidden noundef ptr @_ZNK11FileMapInfo6headerEv(ptr noundef nonnull align 8 dereferenceable(40) %0) #1 comdat align 2 {
  %2 = alloca ptr, align 8
  store ptr %0, ptr %2, align 8
  %3 = load ptr, ptr %2, align 8
  %4 = getelementptr inbounds %class.FileMapInfo, ptr %3, i32 0, i32 7
  %5 = load ptr, ptr %4, align 8
  ret ptr %5
}

; Function Attrs: mustprogress nounwind uwtable
define linkonce_odr hidden noundef i64 @_ZNK13FileMapRegion19oopmap_size_in_bitsEv(ptr noundef nonnull align 8 dereferenceable(88) %0) #1 comdat align 2 {
  %2 = alloca ptr, align 8
  store ptr %0, ptr %2, align 8
  %3 = load ptr, ptr %2, align 8
  call void @_ZNK13FileMapRegion21assert_is_heap_regionEv(ptr noundef nonnull align 8 dereferenceable(88) %3)
  %4 = getelementptr inbounds %struct.CDSFileMapRegion, ptr %3, i32 0, i32 10
  %5 = load i64, ptr %4, align 8
  ret i64 %5
}

; Function Attrs: mustprogress nounwind uwtable
define linkonce_odr hidden noundef i64 @_ZNK13FileMapRegion13oopmap_offsetEv(ptr noundef nonnull align 8 dereferenceable(88) %0) #1 comdat align 2 {
  %2 = alloca ptr, align 8
  store ptr %0, ptr %2, align 8
  %3 = load ptr, ptr %2, align 8
  call void @_ZNK13FileMapRegion21assert_is_heap_regionEv(ptr noundef nonnull align 8 dereferenceable(88) %3)
  %4 = getelementptr inbounds %struct.CDSFileMapRegion, ptr %3, i32 0, i32 9
  %5 = load i64, ptr %4, align 8
  ret i64 %5
}

; Function Attrs: mustprogress nounwind uwtable
define linkonce_odr hidden noundef ptr @_ZNK13FileMapRegion11mapped_baseEv(ptr noundef nonnull align 8 dereferenceable(88) %0) #1 comdat align 2 {
  %2 = alloca ptr, align 8
  store ptr %0, ptr %2, align 8
  %3 = load ptr, ptr %2, align 8
  %4 = getelementptr inbounds %struct.CDSFileMapRegion, ptr %3, i32 0, i32 13
  %5 = load ptr, ptr %4, align 8
  ret ptr %5
}

; Function Attrs: mustprogress nounwind uwtable
define linkonce_odr hidden noundef ptr @_ZNK11FileMapInfo9region_atEi(ptr noundef nonnull align 8 dereferenceable(40) %0, i32 noundef %1) #1 comdat align 2 {
  %3 = alloca ptr, align 8
  %4 = alloca i32, align 4
  store ptr %0, ptr %3, align 8
  store i32 %1, ptr %4, align 4
  %5 = load ptr, ptr %3, align 8
  %6 = call noundef ptr @_ZNK11FileMapInfo6headerEv(ptr noundef nonnull align 8 dereferenceable(40) %5)
  %7 = load i32, ptr %4, align 4
  %8 = call noundef ptr @_ZN13FileMapHeader9region_atEi(ptr noundef nonnull align 8 dereferenceable(792) %6, i32 noundef %7)
  ret ptr %8
}

; Function Attrs: mustprogress nounwind uwtable
define linkonce_odr hidden noundef zeroext i1 @_ZN17ArchiveHeapLoader9is_mappedEv() #1 comdat align 2 {
  %1 = load i8, ptr @_ZN17ArchiveHeapLoader10_is_mappedE, align 1
  %2 = trunc i8 %1 to i1
  ret i1 %2
}

; Function Attrs: mustprogress nounwind uwtable
define hidden void @_ZN11FileMapInfo28patch_heap_embedded_pointersEv(ptr noundef nonnull align 8 dereferenceable(40) %0) #1 align 2 {
  %2 = alloca ptr, align 8
  %3 = alloca ptr, align 8
  %4 = alloca ptr, align 8
  %5 = alloca %class.MemRegion, align 8
  store ptr %0, ptr %2, align 8
  %6 = load ptr, ptr %2, align 8
  %7 = call noundef zeroext i1 @_ZN17ArchiveHeapLoader9is_mappedEv()
  br i1 %7, label %8, label %11

8:                                                ; preds = %1
  %9 = load i8, ptr @_ZN11FileMapInfo28_heap_pointers_need_patchingE, align 1
  %10 = trunc i8 %9 to i1
  br i1 %10, label %12, label %11

11:                                               ; preds = %8, %1
  br label %26

12:                                               ; preds = %8
  %13 = call noundef ptr @_ZN11FileMapInfo17map_bitmap_regionEv(ptr noundef nonnull align 8 dereferenceable(40) %6)
  store ptr %13, ptr %3, align 8
  %14 = call noundef ptr @_ZNK11FileMapInfo9region_atEi(ptr noundef nonnull align 8 dereferenceable(40) %6, i32 noundef 3)
  store ptr %14, ptr %4, align 8
  call void @llvm.memcpy.p0.p0.i64(ptr align 8 %5, ptr align 8 @_ZN11FileMapInfo22_mapped_heap_memregionE, i64 16, i1 false)
  %15 = call noundef ptr @_ZNK11FileMapInfo9region_atEi(ptr noundef nonnull align 8 dereferenceable(40) %6, i32 noundef 2)
  %16 = call noundef ptr @_ZNK13FileMapRegion11mapped_baseEv(ptr noundef nonnull align 8 dereferenceable(88) %15)
  %17 = load ptr, ptr %4, align 8
  %18 = call noundef i64 @_ZNK13FileMapRegion13oopmap_offsetEv(ptr noundef nonnull align 8 dereferenceable(88) %17)
  %19 = getelementptr inbounds i8, ptr %16, i64 %18
  %20 = load ptr, ptr %4, align 8
  %21 = call noundef i64 @_ZNK13FileMapRegion19oopmap_size_in_bitsEv(ptr noundef nonnull align 8 dereferenceable(88) %20)
  %22 = getelementptr inbounds { ptr, i64 }, ptr %5, i32 0, i32 0
  %23 = load ptr, ptr %22, align 8
  %24 = getelementptr inbounds { ptr, i64 }, ptr %5, i32 0, i32 1
  %25 = load i64, ptr %24, align 8
  call void @_ZN17ArchiveHeapLoader23patch_embedded_pointersEP11FileMapInfo9MemRegionPhm(ptr noundef %6, ptr %23, i64 %25, ptr noundef %19, i64 noundef %21)
  br label %26

26:                                               ; preds = %12, %11
  ret void
}