; Function Attrs: mustprogress nounwind uwtable
define hidden void @_ZN11FileMapInfo28patch_heap_embedded_pointersEv(ptr noundef nonnull align 8 dereferenceable(40) %0) local_unnamed_addr #0 align 2 {
  %2 = load i8, ptr @_ZN17ArchiveHeapLoader10_is_mappedE, align 1
  %3 = trunc i8 %2 to i1
  br i1 %3, label %4, label %18

4:                                                ; preds = %1
  %5 = load i8, ptr @_ZN11FileMapInfo28_heap_pointers_need_patchingE, align 1
  %6 = trunc i8 %5 to i1
  br i1 %6, label %7, label %18

7:                                                ; preds = %4
  %8 = tail call noundef ptr @_ZN11FileMapInfo17map_bitmap_regionEv(ptr noundef nonnull align 8 dereferenceable(40) %0)
  %9 = getelementptr inbounds i8, ptr %0, i64 32
  %10 = load ptr, ptr %9, align 8
  %.sroa.0.0.copyload = load ptr, ptr @_ZN11FileMapInfo22_mapped_heap_memregionE, align 8
  %.sroa.2.0.copyload = load i64, ptr getelementptr inbounds (i8, ptr @_ZN11FileMapInfo22_mapped_heap_memregionE, i64 8), align 8
  %11 = getelementptr inbounds i8, ptr %10, i64 280
  %12 = load ptr, ptr %11, align 8
  %13 = getelementptr inbounds i8, ptr %10, i64 336
  %14 = load i64, ptr %13, align 8
  %15 = getelementptr inbounds i8, ptr %12, i64 %14
  %16 = getelementptr inbounds i8, ptr %10, i64 344
  %17 = load i64, ptr %16, align 8
  tail call void @_ZN17ArchiveHeapLoader23patch_embedded_pointersEP11FileMapInfo9MemRegionPhm(ptr noundef nonnull %0, ptr %.sroa.0.0.copyload, i64 %.sroa.2.0.copyload, ptr noundef %15, i64 noundef %17) #25
  br label %18

18:                                               ; preds = %1, %4, %7
  ret void
}